(dp1
S'ILE'
p2
F0.11653447223917023
sS'GLN'
p3
F0.0012202562538133007
sS'GLY'
p4
F0
sS'GLU'
p5
F0.059792556436851739
sS'CYS'
p6
F0
sS'ASP'
p7
F0.030506406345332519
sS'SER'
p8
F0.048810250152532035
sS'LYS'
p9
F0.058572300183038439
sS'PRO'
p10
F0.00061012812690665037
sS'HID'
p11
F0
sS'HIE'
p12
F0
sS'ASN'
p13
F0.029896278218425869
sS'HIP'
p14
F0.0018303843807199512
sS'VAL'
p15
F0.13178767541183647
sS'THR'
p16
F0.030506406345332519
sS'TRP'
p17
F0
sS'PHE'
p18
F0.059792556436851739
sS'ALA'
p19
F0.071384990848078103
sS'MET'
p20
F0.015863331299572909
sS'LEU'
p21
F0.25564368517388653
sS'ARG'
p22
F0.02928615009151922
sS'TYR'
p23
F0.057962172056131786
s.