(dp1
S'ILE'
p2
F0.048412698412698414
sS'GLN'
p3
F0.051190476190476189
sS'GLY'
p4
F0.019047619047619049
sS'GLU'
p5
F0.11388888888888889
sS'CYS'
p6
F0.022619047619047618
sS'ASP'
p7
F0.084126984126984133
sS'SER'
p8
F0.15158730158730158
sS'LYS'
p9
F0.11071428571428571
sS'PRO'
p10
F0.0055555555555555558
sS'HID'
p11
F0
sS'HIE'
p12
F0
sS'ASN'
p13
F0.060317460317460318
sS'HIP'
p14
F0.013888888888888888
sS'VAL'
p15
F0.037698412698412696
sS'THR'
p16
F0.07301587301587302
sS'TRP'
p17
F0.00039682539682539683
sS'PHE'
p18
F0.001984126984126984
sS'ALA'
p19
F0.07301587301587302
sS'MET'
p20
F0.0011904761904761906
sS'LEU'
p21
F0.05634920634920635
sS'ARG'
p22
F0.059523809523809521
sS'TYR'
p23
F0.015476190476190477
s.