(dp1
S'WF'
p2
F0.059792556436851739
sS'IVL'
p3
F0.50396583282489327
sS'ED'
p4
F0.090298962782184258
sS'K'
F0.058572300183038439
sS'M'
F0.015863331299572909
sS'NQ'
p5
F0.031116534472239169
sS'S'
F0.048810250152532035
sS'R'
F0.02928615009151922
sS'PG'
p6
F0.00061012812690665037
sS'ACT'
p7
F0.10189139719341062
sS'Y'
F0.057962172056131786
sS'Hhj'
p8
F0.0018303843807199512
s.