(dp1
S'CYS'
p2
F4.8702399999999999
sS'HIP'
p3
F16.84188
sS'ASP'
p4
F-9.7059610000000003
sS'SER'
p5
F1.826471
sS'GLN'
p6
F-2.1969349999999999
sS'LYS'
p7
F-2.8527079999999998
sS'ASN'
p8
F-3.4184350000000001
sS'THR'
p9
F2.0857399999999999
sS'PHE'
p10
F1.627793
sS'ALA'
p11
F5.9101400000000002
sS'MET'
p12
F4.4175019999999998
sS'ILE'
p13
F9.8685349999999996
sS'HID'
p14
F14.27318
sS'HIE'
p15
F13.73808
sS'ARG'
p16
F-27.900120000000001
sS'TRP'
p17
F0.38749299999999998
sS'VAL'
p18
F5.9883350000000002
sS'GLU'
p19
F-8.4207610000000006
sS'TYR'
p20
F-3.5261290000000001
sS'LEU'
p21
F6.3220349999999996
s.