(dp1
S'ILE'
p2
F0.11207235548564687
sS'GLN'
p3
F0.040503342508847816
sS'GLY'
p4
F0.15100275265434526
sS'GLU'
p5
F0.04128981517892253
sS'CYS'
p6
F0.0039323633503735743
sS'ASP'
p7
F0.023594180102241447
sS'SER'
p8
F0.064097522611089267
sS'LYS'
p9
F0.023987416437278804
sS'PRO'
p10
F0.006291781360597719
sS'HID'
p11
F0
sS'HIE'
p12
F0
sS'ASN'
p13
F0.02320094376720409
sS'HIP'
p14
F0.0035391270153362171
sS'VAL'
p15
F0.10027526543452615
sS'THR'
p16
F0.028313016122689737
sS'TRP'
p17
F0.0011797090051120724
sS'PHE'
p18
F0.036177742823436887
sS'ALA'
p19
F0.12308297286669288
sS'MET'
p20
F0.0055053086905230047
sS'LEU'
p21
F0.12898151789225323
sS'ARG'
p22
F0.037357451828548958
sS'TYR'
p23
F0.045615414864333466
s.