(dp1
S'WF'
p2
F12.345112
sS'IVL'
p3
F111.478784
sS'ED'
p4
F11.784481
sS'K'
F7.8980019999999991
sS'M'
F4.4550339999999995
sS'NQ'
p5
F9.0665099999999992
sS'S'
F12.242457
sS'R'
F0.28098399999999996
sS'PG'
p6
F0
sS'ACT'
p7
F37.198413000000002
sS'Y'
F7.4563410000000001
sS'Hhj'
p8
F3.7938859999999996
s.