(dp1
S'WF'
p2
F14.244173999999999
sS'IVL'
p3
F125.065799
sS'ED'
p4
F4.9741569999999999
sS'K'
F6.4113629999999997
sS'M'
F4.5394119999999987
sS'NQ'
p5
F4.0879500000000002
sS'S'
F9.9970340000000011
sS'R'
F0.080338000000000007
sS'PG'
p6
F0
sS'ACT'
p7
F38.948305000000005
sS'Y'
F6.6227230000000006
sS'Hhj'
p8
F3.0287480000000002
s.