(dp1
S'WF'
p2
F7.4571369999999995
sS'IVL'
p3
F38.181856000000003
sS'ED'
p4
F43.790402999999998
sS'K'
F33.316644000000004
sS'M'
F5.9124669999999995
sS'NQ'
p5
F32.883161999999999
sS'S'
F24.946004000000002
sS'R'
F0.096970000000000001
sS'PG'
p6
F0
sS'ACT'
p7
F37.579063999999995
sS'Y'
F3.7981000000000003
sS'Hhj'
p8
F16.038200000000003
s.