(dp1
S'WF'
p2
F6.9746890000000006
sS'IVL'
p3
F48.308897000000002
sS'ED'
p4
F20.135735999999998
sS'K'
F24.309166999999999
sS'M'
F5.055358
sS'NQ'
p5
F43.287362000000009
sS'S'
F30.703993999999994
sS'R'
F0.0036230000000000004
sS'PG'
p6
F0
sS'ACT'
p7
F46.983274000000002
sS'Y'
F3.0883280000000002
sS'Hhj'
p8
F15.149571000000002
s.