(dp1
S'ILE'
p2
F37.183397000000006
sS'GLN'
p3
F4.3432649999999997
sS'GLY'
p4
F0
sS'GLU'
p5
F8.5226829999999989
sS'CYS'
p6
F20.730641000000002
sS'ASP'
p7
F5.3254100000000006
sS'SER'
p8
F12.327124
sS'LYS'
p9
F7.0654909999999997
sS'PRO'
p10
F0
sS'HID'
p11
F0.65509800000000007
sS'HIE'
p12
F0.53378400000000004
sS'ASN'
p13
F4.8118229999999995
sS'HIP'
p14
F2.9142569999999997
sS'VAL'
p15
F27.909582999999994
sS'THR'
p16
F2.5471940000000002
sS'TRP'
p17
F4.8299839999999996
sS'PHE'
p18
F6.1664660000000016
sS'ALA'
p19
F13.892977000000002
sS'MET'
p20
F3.815801
sS'LEU'
p21
F45.855213999999997
sS'ARG'
p22
F0.52515899999999993
sS'TYR'
p23
F8.0446469999999994
s.