(dp1
S'ILE'
p2
F0.061198470038249041
sS'GLN'
p3
F0.03059923501912452
sS'GLY'
p4
F0.072248193795155125
sS'GLU'
p5
F0.06459838504037399
sS'CYS'
p6
F0.025924351891202721
sS'ASP'
p7
F0.054398640033999149
sS'SER'
p8
F0.040798980025499365
sS'LYS'
p9
F0.0072248193795155123
sS'PRO'
p10
F0.03059923501912452
sS'HID'
p11
F0
sS'HIE'
p12
F0
sS'ASN'
p13
F0.025924351891202721
sS'HIP'
p14
F0
sS'VAL'
p15
F0.22609434764130898
sS'THR'
p16
F0.026349341266468339
sS'TRP'
p17
F0.00042498937526561835
sS'PHE'
p18
F0.055673608159796002
sS'ALA'
p19
F0.059073523161920952
sS'MET'
p20
F0.011049723756906077
sS'LEU'
p21
F0.14959626009349766
sS'ARG'
p22
F0.028474288142796431
sS'TYR'
p23
F0.029749256268593285
s.