(dp1
S'WF'
p2
F0.05609859753506162
sS'IVL'
p3
F0.43688907777305569
sS'ED'
p4
F0.11899702507437314
sS'K'
F0.0072248193795155123
sS'M'
F0.011049723756906077
sS'NQ'
p5
F0.056523586910327245
sS'S'
F0.040798980025499365
sS'R'
F0.028474288142796431
sS'PG'
p6
F0.10284742881427965
sS'ACT'
p7
F0.111347216319592
sS'Y'
F0.029749256268593285
sS'Hhj'
p8
F0
s.