(dp1
S'WF'
p2
F0.0164910698887487
sS'IVL'
p3
F0.15871589806288702
sS'ED'
p4
F0.19377600497881806
sS'K'
F0.12675749028350403
sS'M'
F0.013096494916930464
sS'NQ'
p5
F0.12392674837227091
sS'S'
F0.077695294226113126
sS'R'
F0.08768338055233621
sS'PG'
p6
F0
sS'ACT'
p7
F0.14005828624933075
sS'Y'
F0.0097775373685540165
sS'Hhj'
p8
F0.052021795100506731
s.
