(dp1
S'ILE'
p2
F0.16667633132375756
sS'GLN'
p3
F0.017312861489863111
sS'GLY'
p4
F0
sS'GLU'
p5
F0.043833763476304743
sS'CYS'
p6
F0.10024139108338914
sS'ASP'
p7
F0.030211271007697025
sS'SER'
p8
F0.062959361986814164
sS'LYS'
p9
F0.035227975952127226
sS'PRO'
p10
F0
sS'HID'
p11
F0.002759422716506582
sS'HIE'
p12
F0.0056474332953491057
sS'ASN'
p13
F0.032351886015737956
sS'HIP'
p14
F0.0061520514065516374
sS'VAL'
p15
F0.13591695917838043
sS'THR'
p16
F0.018181483409635511
sS'TRP'
p17
F0.018981842114163011
sS'PHE'
p18
F0.022534984253401554
sS'ALA'
p19
F0.050239904885274599
sS'MET'
p20
F0.023027814158065114
sS'LEU'
p21
F0.18387840573987113
sS'ARG'
p22
F0.021162387900595752
sS'TYR'
p23
F0.022702468606514654
s.