(dp1
S'ILE'
p2
F0.036325630053421668
sS'GLN'
p3
F0.052999986926306655
sS'GLY'
p4
F0
sS'GLU'
p5
F0.12396355402913393
sS'CYS'
p6
F0.10439016759353326
sS'ASP'
p7
F0.036865684083265092
sS'SER'
p8
F0.082531866618695465
sS'LYS'
p9
F0.12302631513565992
sS'PRO'
p10
F0
sS'HID'
p11
F0.017193859126085988
sS'HIE'
p12
F0.01631838393371526
sS'ASN'
p13
F0.088739858412760622
sS'HIP'
p14
F0.024293935800622172
sS'VAL'
p15
F0.014908493935153061
sS'THR'
p16
F0.030335342259497654
sS'TRP'
p17
F0.015856912287278757
sS'PHE'
p18
F0.0062096381364286409
sS'ALA'
p19
F0.012297913878927374
sS'MET'
p20
F0.017050315659077196
sS'LEU'
p21
F0.093865427587486824
sS'ARG'
p22
F0.088161988659659907
sS'TYR'
p23
F0.014664725883290552
s.