(dp1
S'WF'
p2
F0.022066550423707396
sS'IVL'
p3
F0.14509955157606155
sS'ED'
p4
F0.16082923811239905
sS'K'
F0.12302631513565992
sS'M'
F0.017050315659077196
sS'NQ'
p5
F0.14173984533906728
sS'S'
F0.082531866618695465
sS'R'
F0.088161988659659907
sS'PG'
p6
F0
sS'ACT'
p7
F0.14702342373195829
sS'Y'
F0.014664725883290552
sS'Hhj'
p8
F0.057806178860423413
s.
