(dp1
S'WF'
p2
F0.041516826367564569
sS'IVL'
p3
F0.48647169624200914
sS'ED'
p4
F0.074045034484001765
sS'K'
F0.035227975952127226
sS'M'
F0.023027814158065114
sS'NQ'
p5
F0.049664747505601063
sS'S'
F0.062959361986814164
sS'R'
F0.021162387900595752
sS'PG'
p6
F0
sS'ACT'
p7
F0.16866277937829927
sS'Y'
F0.022702468606514654
sS'Hhj'
p8
F0.014558907418407326
s.
