(dp1
S'ILE'
p2
F0.032435260266806175
sS'GLN'
p3
F0.048914465079780277
sS'GLY'
p4
F0.10462987182840701
sS'GLU'
p5
F0.067486267329322516
sS'CYS'
p6
F0.0028773214752811928
sS'ASP'
p7
F0.080826575987444416
sS'SER'
p8
F0.060946900340047086
sS'LYS'
p9
F0.097828930159560554
sS'PRO'
p10
F0.047083442322783157
sS'HID'
p11
F0
sS'HIE'
p12
F0
sS'ASN'
p13
F0.07140988752288778
sS'HIP'
p14
F0.040805650013078731
sS'VAL'
p15
F0.064347371174470314
sS'THR'
p16
F0.095213183363850373
sS'TRP'
p17
F0.0002615746795710175
sS'PHE'
p18
F0.037405179178655504
sS'ALA'
p19
F0.029296364111953962
sS'MET'
p20
F0.016217630133403087
sS'LEU'
p21
F0.024326445200104629
sS'ARG'
p22
F0.075071933036882033
sS'TYR'
p23
F0.0026157467957101752
s.