(dp1
S'WF'
p2
F0.037666753858226522
sS'IVL'
p3
F0.12110907664138111
sS'ED'
p4
F0.14831284331676695
sS'K'
F0.097828930159560554
sS'M'
F0.016217630133403087
sS'NQ'
p5
F0.12032435260266806
sS'S'
F0.060946900340047086
sS'R'
F0.075071933036882033
sS'PG'
p6
F0.15171331415119016
sS'ACT'
p7
F0.12738686895108553
sS'Y'
F0.0026157467957101752
sS'Hhj'
p8
F0.040805650013078731
s.