(dp1
S'ILE'
p2
F0.19715976331360946
sS'GLN'
p3
F0.014201183431952662
sS'GLY'
p4
F0.0007100591715976331
sS'GLU'
p5
F0.063195266272189354
sS'CYS'
p6
F0.030059171597633137
sS'ASP'
p7
F0.039526627218934914
sS'SER'
p8
F0.044497041420118344
sS'LYS'
p9
F0.07195266272189349
sS'PRO'
p10
F0.0061538461538461538
sS'HID'
p11
F0
sS'HIE'
p12
F0
sS'ASN'
p13
F0.0073372781065088755
sS'HIP'
p14
F0.012781065088757397
sS'VAL'
p15
F0.13869822485207101
sS'THR'
p16
F0.044497041420118344
sS'TRP'
p17
F0
sS'PHE'
p18
F0.039526627218934914
sS'ALA'
p19
F0.046863905325443787
sS'MET'
p20
F0.084497041420118338
sS'LEU'
p21
F0.1514792899408284
sS'ARG'
p22
F0.0061538461538461538
sS'TYR'
p23
F0.0007100591715976331
s.