(dp1
S'CYS'
p2
F-0.73640499999999998
sS'HIP'
p3
F13.580902999999999
sS'ASP'
p4
F-11.742659
sS'SER'
p5
F-3.259147
sS'GLN'
p6
F-6.3041559999999999
sS'LYS'
p7
F-5.2385809999999999
sS'ASN'
p8
F-7.5256559999999997
sS'THR'
p9
F-3.520905
sS'PHE'
p10
F-0.16752300000000001
sS'ALA'
p11
F0.30349500000000001
sS'MET'
p12
F-0.92483400000000004
sS'ILE'
p13
F4.9214209999999996
sS'HID'
p14
F11.012203
sS'HIE'
p15
F10.477103
sS'ARG'
p16
F-30.876684000000001
sS'TRP'
p17
F-1.407823
sS'VAL'
p18
F1.041221
sS'GLU'
p19
F-10.457459
sS'TYR'
p20
F-5.5431609999999996
sS'LEU'
p21
F1.3749210000000001
s.