(dp1
S'ILE'
p2
F0.19963031423290203
sS'GLN'
p3
F0.027110289587184228
sS'GLY'
p4
F0.053604436229205174
sS'GLU'
p5
F0.013555144793592114
sS'CYS'
p6
F0.014171287738755391
sS'ASP'
p7
F0.027726432532347505
sS'SER'
p8
F0.081330868761552683
sS'LYS'
p9
F0.018484288354898338
sS'PRO'
p10
F0.033887861983980284
sS'HID'
p11
F0
sS'HIE'
p12
F0
sS'ASN'
p13
F0.0049291435613062233
sS'HIP'
p14
F0.0061614294516327784
sS'VAL'
p15
F0.14849044978434997
sS'THR'
p16
F0.017868145409735057
sS'TRP'
p17
F0
sS'PHE'
p18
F0.061614294516327786
sS'ALA'
p19
F0.096118299445471345
sS'MET'
p20
F0.0080098582871226121
sS'LEU'
p21
F0.12322858903265557
sS'ARG'
p22
F0.059149722735674676
sS'TYR'
p23
F0.0049291435613062233
s.