(dp1
S'WF'
p2
F0.006202924235711121
sS'IVL'
p3
F0.14222419140451928
sS'ED'
p4
F0.16570669029685423
sS'K'
F0.10677891005759858
sS'M'
F0.014621178555604785
sS'NQ'
p5
F0.11918475852902083
sS'S'
F0.075764288879042976
sS'R'
F0.057598582188746125
sS'PG'
p6
F0.18032786885245902
sS'ACT'
p7
F0.096145325653522379
sS'Y'
F0.0044306601683650861
sS'Hhj'
p8
F0.031014621178555603
s.