(dp1
S'ILE'
p2
F0.05832528666666667
sS'GLN'
p3
F0.063330189999999995
sS'GLY'
p4
F0.023034379999999997
sS'GLU'
p5
F0.13552011999999999
sS'CYS'
p6
F0.0038919699999999998
sS'ASP'
p7
F0.047929039999999999
sS'SER'
p8
F0.090575130000000004
sS'LYS'
p9
F0.11015786999999999
sS'PRO'
p10
F0.013037019999999998
sS'HID'
p11
F0
sS'HIE'
p12
F0
sS'ASN'
p13
F0.061628473333333329
sS'HIP'
p14
F0.043984666666666665
sS'VAL'
p15
F0.045355376666666669
sS'THR'
p16
F0.087214186666666652
sS'TRP'
p17
F0
sS'PHE'
p18
F0.029193933333333328
sS'ALA'
p19
F0.045417003333333338
sS'MET'
p20
F0.017160430000000001
sS'LEU'
p21
F0.03505221666666667
sS'ARG'
p22
F0.069252193333333337
sS'TYR'
p23
F0.019940503333333335
s.