(dp1
S'ILE'
p2
F52.929218999999996
sS'GLN'
p3
F2.4058859999999997
sS'GLY'
p4
F0
sS'GLU'
p5
F12.73901
sS'CYS'
p6
F23.242877
sS'ASP'
p7
F8.3623650000000005
sS'SER'
p8
F11.694726999999999
sS'LYS'
p9
F10.47349
sS'PRO'
p10
F0
sS'HID'
p11
F0.86104800000000004
sS'HIE'
p12
F0.70626100000000003
sS'ASN'
p13
F6.3318270000000005
sS'HIP'
p14
F1.7919320000000001
sS'VAL'
p15
F39.495834000000002
sS'THR'
p16
F2.0045349999999997
sS'TRP'
p17
F7.8895300000000015
sS'PHE'
p18
F8.2508920000000003
sS'ALA'
p19
F15.875242000000002
sS'MET'
p20
F5.0111350000000003
sS'LEU'
p21
F58.637298999999992
sS'ARG'
p22
F7.8983230000000004
sS'TYR'
p23
F8.3985660000000006
s.