(dp1
S'ILE'
p2
F0.15667448516905377
sS'GLN'
p3
F0.022439159732163705
sS'GLY'
p4
F0
sS'GLU'
p5
F0.029976745937914787
sS'CYS'
p6
F0.070748346275589097
sS'ASP'
p7
F0.015857823104014963
sS'SER'
p8
F0.060987277943383565
sS'LYS'
p9
F0.051571211417587852
sS'PRO'
p10
F0
sS'HID'
p11
F0.0071082413493289412
sS'HIE'
p12
F0.0069306502275657449
sS'ASN'
p13
F0.055505128450981871
sS'HIP'
p14
F0.015699675270396781
sS'VAL'
p15
F0.014791569618692825
sS'THR'
p16
F0.023652177157184168
sS'TRP'
p17
F0.10832285308758328
sS'PHE'
p18
F0.010432323511628287
sS'ALA'
p19
F0.03917144298755338
sS'MET'
p20
F0.24247564043114544
sS'LEU'
p21
F0.061742686720838297
sS'ARG'
p22
F6.8217947624483641e-06
sS'TYR'
p23
F0.0059057398126307684
s.