(dp1
S'ILE'
p2
F0.27941055488834504
sS'GLN'
p3
F4.9073094888355007e-07
sS'GLY'
p4
F0
sS'GLU'
p5
F2.639480219651861e-07
sS'CYS'
p6
F0.00085289236118506141
sS'ASP'
p7
F1.9491027624555632e-07
sS'SER'
p8
F5.4798306146914812e-05
sS'LYS'
p9
F3.6189195272123312e-06
sS'PRO'
p10
F0
sS'HID'
p11
F0.00024789602132388146
sS'HIE'
p12
F0.00063161822837314789
sS'ASN'
p13
F2.0793912815992983e-07
sS'HIP'
p14
F0.00044364004296244738
sS'VAL'
p15
F0.0028550554348779011
sS'THR'
p16
F6.7726433068998134e-07
sS'TRP'
p17
F0.14845193033824672
sS'PHE'
p18
F0.011148410021662388
sS'ALA'
p19
F0.055650888141632666
sS'MET'
p20
F0.49999980144063394
sS'LEU'
p21
F0.00024604943017506525
sS'ARG'
p22
F1.9866892304620999e-07
sS'TYR'
p23
F8.129632786364509e-07
s.