(dp1
S'ILE'
p2
F0.22421218907033136
sS'GLN'
p3
F0.0076921352372378614
sS'GLY'
p4
F0
sS'GLU'
p5
F0.0047174788431340563
sS'CYS'
p6
F0.033530044748301818
sS'ASP'
p7
F0.0013888708189580194
sS'SER'
p8
F0.022371930092130479
sS'LYS'
p9
F0.0112422098377685
sS'PRO'
p10
F0
sS'HID'
p11
F0.002190481800743545
sS'HIE'
p12
F0.0040012393172341792
sS'ASN'
p13
F0.019263041786081504
sS'HIP'
p14
F0.0036382108953263124
sS'VAL'
p15
F0.0058124289099700478
sS'THR'
p16
F0.0061916372485244803
sS'TRP'
p17
F0.14458762226989844
sS'PHE'
p18
F0.010020756307553827
sS'ALA'
p19
F0.048912638221997172
sS'MET'
p20
F0.43008616334677258
sS'LEU'
p21
F0.017159054630125223
sS'ARG'
p22
F2.3118121834158759e-07
sS'TYR'
p23
F0.0029816354366922434
s.