(dp1
S'ILE'
p2
F0.15894610431836975
sS'GLN'
p3
F0.02340955573948111
sS'GLY'
p4
F0
sS'GLU'
p5
F0.031033129644882029
sS'CYS'
p6
F0.068397355269331869
sS'ASP'
p7
F0.013425412563994349
sS'SER'
p8
F0.063918621435277018
sS'LYS'
p9
F0.049383995995674418
sS'PRO'
p10
F0
sS'HID'
p11
F0.0061620287060053331
sS'HIE'
p12
F0.0059704950495326073
sS'ASN'
p13
F0.05708005751670002
sS'HIP'
p14
F0.01636155829400085
sS'VAL'
p15
F0.015200124533956255
sS'THR'
p16
F0.024389797038417323
sS'TRP'
p17
F0.10354761893438909
sS'PHE'
p18
F0.010780306704602928
sS'ALA'
p19
F0.04022589154421264
sS'MET'
p20
F0.24252843050422271
sS'LEU'
p21
F0.063955816323884543
sS'ARG'
p22
F6.9122497781052367e-06
sS'TYR'
p23
F0.0052767876332870563
s.