(dp1
S'ILE'
p2
F0.22830747647808908
sS'GLN'
p3
F0.0083041734527410527
sS'GLY'
p4
F0
sS'GLU'
p5
F0.0069092212733103744
sS'CYS'
p6
F0.031744071661483672
sS'ASP'
p7
F0.0011683105930307711
sS'SER'
p8
F0.025611159518310264
sS'LYS'
p9
F0.010470633445395641
sS'PRO'
p10
F0
sS'HID'
p11
F0.0024349124206362923
sS'HIE'
p12
F0.0033227490078309697
sS'ASN'
p13
F0.01916002967091026
sS'HIP'
p14
F0.0044564822513133342
sS'VAL'
p15
F0.0064041211780531872
sS'THR'
p16
F0.0063493109910396396
sS'TRP'
p17
F0.13019728151837218
sS'PHE'
p18
F0.0099691171365597509
sS'ALA'
p19
F0.049913686940572292
sS'MET'
p20
F0.43436338430340382
sS'LEU'
p21
F0.018352306671080183
sS'ARG'
p22
F2.9290667574593925e-07
sS'TYR'
p23
F0.0025612785811915256
s.