(dp1
S'ILE'
p2
F0.27828509208869712
sS'GLN'
p3
F6.1461535447000314e-07
sS'GLY'
p4
F0
sS'GLU'
p5
F1.7902759646558587e-07
sS'CYS'
p6
F0.0014600908388804922
sS'ASP'
p7
F3.2622319653400569e-07
sS'SER'
p8
F6.177688959235582e-05
sS'LYS'
p9
F4.0439610880846474e-06
sS'PRO'
p10
F0
sS'HID'
p11
F0.00026034466405172959
sS'HIE'
p12
F0.00064628707870320221
sS'ASN'
p13
F2.9550338211789471e-07
sS'HIP'
p14
F0.00057113716130946144
sS'VAL'
p15
F0.00287822104006235
sS'THR'
p16
F8.2193618648394348e-07
sS'TRP'
p17
F0.13875080734164164
sS'PHE'
p18
F0.011383113165831895
sS'ALA'
p19
F0.057024790727535059
sS'MET'
p20
F0.50840960663386925
sS'LEU'
p21
F0.00026127588054347331
sS'ARG'
p22
F1.9247488769106943e-07
sS'TYR'
p23
F9.8274759019921895e-07
s.