(dp1
S'WF'
p2
F0.025707636666666662
sS'IVL'
p3
F0.50822457666666676
sS'ED'
p4
F0.075535996666666674
sS'K'
F0.024446499999999996
sS'M'
F0.0022339133333333333
sS'NQ'
p5
F0.05000487
sS'S'
F0.040353886666666665
sS'R'
F0.025096723333333334
sS'PG'
p6
F0.012269509999999999
sS'ACT'
p7
F0.19003146333333332
sS'Y'
F0.036176090000000001
sS'Hhj'
p8
F0.0099188399999999999
s.