(dp1
S'WF'
p2
F0.090706111091970229
sS'IVL'
p3
F0.29298607173850932
sS'ED'
p4
F0.0010183639837104948
sS'K'
F0.0012378692146934012
sS'M'
F0.39061474350193331
sS'NQ'
p5
F0.0008194088023162514
sS'S'
F0.0022943848353366579
sS'R'
F3.7630345763886803e-07
sS'PG'
p6
F0
sS'ACT'
p7
F0.1602145819441704
sS'Y'
F0.011815668173928295
sS'Hhj'
p8
F0.048292420409973995
s.