(dp1
S'WF'
p2
F0.09964402925254072
sS'IVL'
p3
F0.23945417352139425
sS'ED'
p4
F7.730809842621873e-07
sS'K'
F8.9969460368935295e-07
sS'M'
F0.45767206232982977
sS'NQ'
p5
F1.1482604798396004e-06
sS'S'
F0.0004981849794632124
sS'R'
F1.4350460900432593e-07
sS'PG'
p6
F0
sS'ACT'
p7
F0.15566929145012789
sS'Y'
F4.0258693222939587e-06
sS'Hhj'
p8
F0.047055268056645054
s.