(dp1
S'WF'
p2
F0.10308437550164801
sS'IVL'
p3
F0.21489620651643893
sS'ED'
p4
F1.2558568942487338e-06
sS'K'
F1.6401194930287702e-05
sS'M'
F0.48285617868190828
sS'NQ'
p5
F2.7532273659936695e-07
sS'S'
F0.00046261533356957831
sS'R'
F1.2077392466249693e-07
sS'PG'
p6
F0
sS'ACT'
p7
F0.15244082385581079
sS'Y'
F1.1263967745789412e-05
sS'Hhj'
p8
F0.046230482994392835
s.