(dp1
S'WF'
p2
F0.10532100043655505
sS'IVL'
p3
F0.20872208222346172
sS'ED'
p4
F1.120060996387286e-06
sS'K'
F1.6115749616463301e-05
sS'M'
F0.48570414997168965
sS'NQ'
p5
F8.231457232930328e-07
sS'S'
F0.00045471009781734595
sS'R'
F9.9812682984577565e-08
sS'PG'
p6
F0
sS'ACT'
p7
F0.1532876999944234
sS'Y'
F7.1915244031274626e-06
sS'Hhj'
p8
F0.046485006982630583
s.