(dp1
S'WF'
p2
F0.10358157749810951
sS'IVL'
p3
F0.21255340044945636
sS'ED'
p4
F1.2319482575674566e-06
sS'K'
F1.5706894695889016e-05
sS'M'
F0.48725337952892556
sS'NQ'
p5
F3.744996567297877e-07
sS'S'
F0.00044782583947249694
sS'R'
F8.6735436697302571e-08
sS'PG'
p6
F0
sS'ACT'
p7
F0.15191832498761776
sS'Y'
F7.0332139221292057e-06
sS'Hhj'
p8
F0.044221058404449287
s.