(dp1
S'WF'
p2
F0.11432792563899202
sS'IVL'
p3
F0.23810204517621056
sS'ED'
p4
F0.044458542208876378
sS'K'
F0.049383995995674418
sS'M'
F0.24252843050422271
sS'NQ'
p5
F0.080489613256181133
sS'S'
F0.063918621435277018
sS'R'
F6.9122497781052367e-06
sS'PG'
p6
F0
sS'ACT'
p7
F0.13301304385196183
sS'Y'
F0.0052767876332870563
sS'Hhj'
p8
F0.02849408204953879
s.