(dp1
S'WF'
p2
F0.094492744423236366
sS'IVL'
p3
F0.26762291168783708
sS'ED'
p4
F0.0013779710166415698
sS'K'
F0.0019710649517277051
sS'M'
F0.41090366287444019
sS'NQ'
p5
F0.00089817446043721468
sS'S'
F0.0022870842754420624
sS'R'
F3.3001667004314122e-07
sS'PG'
p6
F0
sS'ACT'
p7
F0.15694543542732464
sS'Y'
F0.012816359026495487
sS'Hhj'
p8
F0.05068426183974762
s.