(dp1
S'WF'
p2
F0.11285273649366363
sS'IVL'
p3
F0.23374965105971363
sS'ED'
p4
F0.047768418157921926
sS'K'
F0.051932605494915615
sS'M'
F0.24280932700497646
sS'NQ'
p5
F0.079305512730562591
sS'S'
F0.063748466466539158
sS'R'
F7.0776242531634879e-06
sS'PG'
p6
F0
sS'ACT'
p7
F0.13212938041743416
sS'Y'
F0.0053886592076610442
sS'Hhj'
p8
F0.030308165342358608
s.