(dp1
S'WF'
p2
F0.15960034035990908
sS'IVL'
p3
F0.28251165975339804
sS'ED'
p4
F4.5885829821074242e-07
sS'K'
F3.6189195272123312e-06
sS'M'
F0.49999980144063394
sS'NQ'
p5
F6.9867007704347985e-07
sS'S'
F5.4798306146914812e-05
sS'R'
F1.9866892304620999e-07
sS'PG'
p6
F0
sS'ACT'
p7
F0.056504457767148415
sS'Y'
F8.129632786364509e-07
sS'Hhj'
p8
F0.0013231542926594767
s.