(dp1
S'WF'
p2
F0.15013392050747354
sS'IVL'
p3
F0.28142458900930295
sS'ED'
p4
F5.0525079299959159e-07
sS'K'
F4.0439610880846474e-06
sS'M'
F0.50840960663386925
sS'NQ'
p5
F9.101187365878979e-07
sS'S'
F6.177688959235582e-05
sS'R'
F1.9247488769106943e-07
sS'PG'
p6
F0
sS'ACT'
p7
F0.058485703502602036
sS'Y'
F9.8274759019921895e-07
sS'Hhj'
p8
F0.0014777689040643934
s.