(dp1
S'CYS'
p2
F-1.010529
sS'HIP'
p3
F14.466911
sS'ASP'
p4
F-9.4192160000000005
sS'SER'
p5
F-3.316341
sS'GLN'
p6
F-4.7058179999999998
sS'LYS'
p7
F-4.3883830000000001
sS'ASN'
p8
F-5.9273179999999996
sS'THR'
p9
F-3.795029
sS'PHE'
p10
F-0.65696600000000005
sS'ALA'
p11
F0.029371000000000001
sS'MET'
p12
F-2.8790179999999999
sS'ILE'
p13
F4.0101899999999997
sS'HID'
p14
F11.898211
sS'HIE'
p15
F11.363111
sS'ARG'
p16
F-28.156692
sS'TRP'
p17
F-1.8972659999999999
sS'VAL'
p18
F0.12998999999999999
sS'GLU'
p19
F-8.1340160000000008
sS'TYR'
p20
F-4.1578720000000002
sS'LEU'
p21
F0.46368999999999999
s.