(dp1
S'CYS'
p2
F2.9921658818380892
sS'HIP'
p3
F19.024179209699113
sS'ASP'
p4
F-5.925733067440051
sS'SER'
p5
F1.2621626840258575
sS'GLN'
p6
F-0.76623129852595917
sS'LYS'
p7
F-0.30257818749152016
sS'ASN'
p8
F-1.9877312985259592
sS'THR'
p9
F0.20766588183808898
sS'PHE'
p10
F1.5416469600667766
sS'ALA'
p11
F4.032065881838089
sS'MET'
p12
F0.61144026280551433
sS'ILE'
p13
F5.9069162061737055
sS'HID'
p14
F16.455479209699114
sS'HIE'
p15
F15.920379209699114
sS'ARG'
p16
F-24.785526272425201
sS'TRP'
p17
F0.30134696006677653
sS'VAL'
p18
F2.0267162061737061
sS'GLU'
p19
F-4.6405330674400513
sS'TYR'
p20
F-1.8049386593929899
sS'LEU'
p21
F2.360416206173706
s.