(dp1
S'CYS'
p2
F2.9962086498058511
sS'HIP'
p3
F19.036306652561709
sS'ASP'
p4
F-5.8039513843770845
sS'SER'
p5
F1.2863236967028462
sS'GLN'
p6
F-0.72502505293090369
sS'LYS'
p7
F-0.25043031038686836
sS'ASN'
p8
F-1.9465250529309035
sS'THR'
p9
F0.211708649805851
sS'PHE'
p10
F1.4665015561370123
sS'ALA'
p11
F4.0361086498058514
sS'MET'
p12
F0.4083281658509601
sS'ILE'
p13
F5.8218363546316132
sS'HID'
p14
F16.46760665256171
sS'HIE'
p15
F15.93250665256171
sS'ARG'
p16
F-24.723205684824478
sS'TRP'
p17
F0.22620155613701209
sS'VAL'
p18
F1.9416363546316135
sS'GLU'
p19
F-4.5187513843770848
sS'TYR'
p20
F-1.7918531868373224
sS'LEU'
p21
F2.2753363546316132
s.