(dp1
S'CYS'
p2
F2.9886646090406903
sS'HIP'
p3
F19.021741052298687
sS'ASP'
p4
F-5.9404398368533
sS'SER'
p5
F1.2569413970481691
sS'GLN'
p6
F-0.77342455397903187
sS'LYS'
p7
F-0.30970227634453956
sS'THR'
p8
F0.20416460904069042
sS'PHE'
p9
F1.5521037534678401
sS'ALA'
p10
F4.0285646090406901
sS'GLU'
p11
F-4.6552398368533003
sS'MET'
p12
F0.64054070456965961
sS'ILE'
p13
F5.9197978979006116
sS'HID'
p14
F16.453041052298687
sS'HIE'
p15
F15.917941052298689
sS'ARG'
p16
F-24.792450809957334
sS'TRP'
p17
F0.31180375346784012
sS'VAL'
p18
F2.0395978979006113
sS'ASN'
p19
F-1.9949245539790319
sS'TYR'
p20
F-1.806661077524786
sS'LEU'
p21
F2.3732978979006112
s.