(dp1
S'CYS'
p2
F-0.97690080477626562
sS'HIP'
p3
F14.425107197749581
sS'ASP'
p4
F-9.3371448908452024
sS'SER'
p5
F-3.2742908920859506
sS'GLN'
p6
F-4.6516320892522813
sS'LYS'
p7
F-4.362731289904163
sS'ASN'
p8
F-5.8731320892522811
sS'THR'
p9
F-3.7614008047762657
sS'PHE'
p10
F-0.72975186850844798
sS'ALA'
p11
F0.062999195223734469
sS'MET'
p12
F-3.3159007767881588
sS'ILE'
p13
F4.2549956225498784
sS'HID'
p14
F11.856407197749581
sS'HIE'
p15
F11.321307197749581
sS'ARG'
p16
F-28.129085989310333
sS'TRP'
p17
F-1.9700518685084478
sS'VAL'
p18
F0.37479562254987847
sS'GLU'
p19
F-8.0519448908452027
sS'TYR'
p20
F-4.1298946724953209
sS'LEU'
p21
F0.70849562254987841
s.