(dp1
S'CYS'
p2
F-1.0072203972093992
sS'HIP'
p3
F14.462834457816024
sS'ASP'
p4
F-9.4118001974349976
sS'SER'
p5
F-3.3125343197608776
sS'GLN'
p6
F-4.7009073304460438
sS'LYS'
p7
F-4.3861354564951727
sS'THR'
p8
F-3.7917203972093989
sS'PHE'
p9
F-0.66384451077565698
sS'ALA'
p10
F0.032679602790600872
sS'GLU'
p11
F-8.126600197434998
sS'MET'
p12
F-2.9198849749541105
sS'ILE'
p13
F4.0342501664978823
sS'HID'
p14
F11.894134457816024
sS'HIE'
p15
F11.359034457816024
sS'ARG'
p16
F-28.154182360668333
sS'TRP'
p17
F-1.9041445107756569
sS'VAL'
p18
F0.15405016649788297
sS'ASN'
p19
F-5.9224073304460436
sS'TYR'
p20
F-4.1555360269026496
sS'LEU'
p21
F0.48775016649788294
s.