(dp1
S'CYS'
p2
F-0.64309136661090083
sS'HIP'
p3
F14.101249330173694
sS'ASP'
p4
F-8.6638672339432983
sS'SER'
p5
F-2.9173492343115068
sS'GLN'
p6
F-4.2057775314572332
sS'LYS'
p7
F-4.1440791574961651
sS'THR'
p8
F-3.4275913666109008
sS'PHE'
p9
F-1.4530996376988838
sS'ALA'
p10
F0.39680863338909911
sS'GLU'
p11
F-7.3786672339432977
sS'MET'
p12
F-7.7137203663835638
sS'ILE'
p13
F7.0052149444320495
sS'HID'
p14
F11.532549330173694
sS'HIE'
p15
F10.997449330173694
sS'ARG'
p16
F-27.905725764793495
sS'TRP'
p17
F-2.6933996376988838
sS'VAL'
p18
F3.1250149444320501
sS'ASN'
p19
F-5.4272775314572321
sS'TYR'
p20
F-3.7961830152440315
sS'LEU'
p21
F3.4587149444320504
s.