(dp1
S'CYS'
p2
F-1.0067176861654286
sS'HIP'
p3
F14.463480778159555
sS'ASP'
p4
F-9.4116625235281592
sS'SER'
p5
F-3.3123503939172805
sS'GLN'
p6
F-4.7008175504499654
sS'LYS'
p7
F-4.38593992068947
sS'THR'
p8
F-3.7912176861654285
sS'PHE'
p9
F-0.66475339408314438
sS'ALA'
p10
F0.033182313834571556
sS'GLU'
p11
F-8.1264625235281596
sS'MET'
p12
F-2.9275199466195589
sS'ILE'
p13
F4.0397571176217211
sS'HID'
p14
F11.894780778159555
sS'HIE'
p15
F11.359680778159555
sS'ARG'
p16
F-28.15418233634021
sS'TRP'
p17
F-1.9050533940831442
sS'VAL'
p18
F0.15955711762172103
sS'ASN'
p19
F-5.9223175504499652
sS'TYR'
p20
F-4.1542550943213925
sS'LEU'
p21
F0.49325711762172103
s.