(dp1
S'CYS'
p2
F3.4627013978117653
sS'HIP'
p3
F19.359911346533625
sS'ASP'
p4
F-4.1845488632875867
sS'SER'
p5
F1.9324769990786952
sS'GLN'
p6
F0.19686086310013973
sS'LYS'
p7
F0.66948560162231496
sS'THR'
p8
F0.67820139781176525
sS'PHE'
p9
F0.30905654755881073
sS'ALA'
p10
F4.5026013978117652
sS'GLU'
p11
F-2.899348863287587
sS'MET'
p12
F-3.4469963334677254
sS'ILE'
p13
F4.8467231072290673
sS'HID'
p14
F16.791211346533625
sS'HIE'
p15
F16.256111346533626
sS'ARG'
p16
F-24.106856378478849
sS'TRP'
p17
F-0.93124345244118933
sS'VAL'
p18
F0.9665231072290672
sS'ASN'
p19
F-1.0246391368998604
sS'TYR'
p20
F-1.6388103210335891
sS'LEU'
p21
F1.3002231072290671
s.