(dp1
S'CYS'
p2
F-1.0037865149335188
sS'HIP'
p3
F14.459493665675073
sS'ASP'
p4
F-9.4045432911393831
sS'SER'
p5
F-3.308952423843901
sS'GLN'
p6
F-4.6959730024202662
sS'LYS'
p7
F-4.3836580062133628
sS'ASN'
p8
F-5.917473002420266
sS'THR'
p9
F-3.7882865149335188
sS'PHE'
p10
F-0.67140354038693306
sS'ALA'
p11
F0.036113485066481342
sS'MET'
p12
F-2.961249665674472
sS'ILE'
p13
F4.057181587672158
sS'HID'
p14
F11.890793665675073
sS'HIE'
p15
F11.355693665675073
sS'ARG'
p16
F-28.151672821083949
sS'TRP'
p17
F-1.9117035403869329
sS'VAL'
p18
F0.17698158767215794
sS'GLU'
p19
F-8.1193432911393835
sS'TYR'
p20
F-4.1516238883181096
sS'LEU'
p21
F0.51068158767215788
s.