(dp1
S'CYS'
p2
F3.0618504564973978
sS'HIP'
p3
F19.060870897762602
sS'ASP'
p4
F-5.7745283419174589
sS'SER'
p5
F1.3409583531104077
sS'GLN'
p6
F-0.65821624678540325
sS'LYS'
p7
F-0.20951717396108807
sS'THR'
p8
F0.27735045649739798
sS'PHE'
p9
F1.4422610128258599
sS'ALA'
p10
F4.1017504564973981
sS'GLU'
p11
F-4.4893283419174592
sS'MET'
p12
F0.19101182336613076
sS'ILE'
p13
F5.788539294324031
sS'HID'
p14
F16.492170897762602
sS'HIE'
p15
F15.957070897762602
sS'ARG'
p16
F-24.730123999141554
sS'TRP'
p17
F0.20196101282585976
sS'VAL'
p18
F1.9083392943240305
sS'ASN'
p19
F-1.8797162467854034
sS'TYR'
p20
F-1.788459479414257
sS'LEU'
p21
F2.2420392943240302
s.