(dp1
S'CYS'
p2
F2.983813
sS'HIP'
p3
F19.018363999999998
sS'ASP'
p4
F-5.9579769999999996
sS'SER'
p5
F1.250445
sS'GLN'
p6
F-0.78317400000000004
sS'LYS'
p7
F-0.31967099999999998
sS'ASN'
p8
F-2.0046740000000001
sS'THR'
p9
F0.19931299999999999
sS'PHE'
p10
F1.5632010000000001
sS'ALA'
p11
F4.0237129999999999
sS'MET'
p12
F0.68226100000000001
sS'ILE'
p13
F5.9312310000000004
sS'HID'
p14
F16.449663999999999
sS'HIE'
p15
F15.914564
sS'ARG'
p16
F-24.799375999999999
sS'TRP'
p17
F0.32290099999999999
sS'VAL'
p18
F2.051031
sS'GLU'
p19
F-4.672777
sS'TYR'
p20
F-1.8083990000000001
sS'LEU'
p21
F2.3847309999999999
s.