(dp1
S'CYS'
p2
F-0.97293836052247751
sS'HIP'
p3
F14.430599357005606
sS'ASP'
p4
F-9.3436812591902285
sS'SER'
p5
F-3.2764497286669028
sS'GLN'
p6
F-4.6558134053227365
sS'LYS'
p7
F-4.3639529011949305
sS'THR'
p8
F-3.7574383605224773
sS'PHE'
p9
F-0.73434273883498136
sS'ALA'
p10
F0.066961639477522539
sS'GLU'
p11
F-8.0584812591902288
sS'MET'
p12
F-3.3596402653485749
sS'ILE'
p13
F4.3035183701502273
sS'HID'
p14
F11.861899357005607
sS'HIE'
p15
F11.326799357005607
sS'ARG'
p16
F-28.131595397440591
sS'TRP'
p17
F-1.9746427388349812
sS'VAL'
p18
F0.42331837015022783
sS'ASN'
p19
F-5.8773134053227363
sS'TYR'
p20
F-4.1217071739677458
sS'LEU'
p21
F0.75701837015022777
s.