(dp1
S'CYS'
p2
F2.9918148702232852
sS'HIP'
p3
F19.022630151237401
sS'ASP'
p4
F-5.9396321295524963
sS'SER'
p5
F1.2594970331693853
sS'GLN'
p6
F-0.77067820353367444
sS'LYS'
p7
F-0.30865557489195272
sS'THR'
p8
F0.20731487022328515
sS'PHE'
p9
F1.5501603592973425
sS'ALA'
p10
F4.0317148702232855
sS'GLU'
p11
F-4.6544321295524966
sS'MET'
p12
F0.63397706285593658
sS'ILE'
p13
F5.9168531223579937
sS'HID'
p14
F16.453930151237401
sS'HIE'
p15
F15.918830151237401
sS'ARG'
p16
F-24.792450800533558
sS'TRP'
p17
F0.3098603592973424
sS'VAL'
p18
F2.0366531223579938
sS'ASN'
p19
F-1.9921782035336744
sS'TYR'
p20
F-1.8064050309629947
sS'LEU'
p21
F2.3703531223579937
s.