(dp1
S'ILE'
p2
F0.14780851725209823
sS'GLN'
p3
F0.016682209097502849
sS'GLY'
p4
F0.070614444099057094
sS'GLU'
p5
F0.033986115428453013
sS'CYS'
p6
F0.015438814630608227
sS'ASP'
p7
F0.035799399026007671
sS'SER'
p8
F0.049735778675784895
sS'LYS'
p9
F0.038597036576520569
sS'PRO'
p10
F0.013677339135840846
sS'HID'
p11
F0
sS'HIE'
p12
F0
sS'ASN'
p13
F0.021344938348357684
sS'HIP'
p14
F0.011138742099264324
sS'VAL'
p15
F0.14470003108486168
sS'THR'
p16
F0.045850170966739198
sS'TRP'
p17
F0.00020723241114910373
sS'PHE'
p18
F0.039477774323904258
sS'ALA'
p19
F0.083721894104237901
sS'MET'
p20
F0.026525748627085278
sS'LEU'
p21
F0.16298829136877008
sS'ARG'
p22
F0.020308776292612164
sS'TYR'
p23
F0.021396746451144959
s.