(dp1
S'ILE'
p2
F0.17044486289111332
sS'GLN'
p3
F0.014334459057102181
sS'GLY'
p4
F0
sS'GLU'
p5
F0.043312365915327534
sS'CYS'
p6
F0.10397721746322754
sS'ASP'
p7
F0.028413886236626683
sS'SER'
p8
F0.063220782243093479
sS'LYS'
p9
F0.025976037158102625
sS'PRO'
p10
F0
sS'HID'
p11
F0.0044617202391973474
sS'HIE'
p12
F0.0052018669831786959
sS'ASN'
p13
F0.026377268192492864
sS'HIP'
p14
F0.002871870430182678
sS'VAL'
p15
F0.13587732351486817
sS'THR'
p16
F0.015181869861277444
sS'TRP'
p17
F0.025832098791499135
sS'PHE'
p18
F0.026719598442929406
sS'ALA'
p19
F0.05388507651564884
sS'MET'
p20
F0.026899211215572285
sS'LEU'
p21
F0.18341834217775119
sS'ARG'
p22
F0.023508125698255822
sS'TYR'
p23
F0.020086016972552759
s.
