(dp1
S'WF'
p2
F0.018553533157672546
sS'IVL'
p3
F0.11143504878905423
sS'ED'
p4
F0.19234101333017717
sS'K'
F0.10334916838752432
sS'M'
F0.021060972919273658
sS'NQ'
p5
F0.13823374580376166
sS'S'
F0.075314945387086149
sS'R'
F0.11185400419807474
sS'PG'
p6
F0
sS'ACT'
p7
F0.16204344765863973
sS'Y'
F0.016436181634150577
sS'Hhj'
p8
F0.049377938734585194
s.
