(dp1
S'ILE'
p2
F0.055442315532001629
sS'GLN'
p3
F0.04525071341214839
sS'GLY'
p4
F0.14594374235629842
sS'GLU'
p5
F0.1210762331838565
sS'CYS'
p6
F0.0024459845087647777
sS'ASP'
p7
F0.014268242967794538
sS'SER'
p8
F0.1072156543008561
sS'LYS'
p9
F0.12066856909906237
sS'PRO'
p10
F0.062780269058295965
sS'HID'
p11
F0
sS'HIE'
p12
F0
sS'ASN'
p13
F0.016306563391765186
sS'HIP'
p14
F0.038320423970648186
sS'VAL'
p15
F0.03628210354667754
sS'THR'
p16
F0.099062372604973498
sS'TRP'
p17
F0
sS'PHE'
p18
F0.019160211985324093
sS'ALA'
p19
F0.017529555646147575
sS'MET'
p20
F0.012637586628618018
sS'LEU'
p21
F0.0089686098654708519
sS'ARG'
p22
F0.060741948634325318
sS'TYR'
p23
F0.015898899306971057
s.