(dp1
S'ILE'
p2
F0.20942982456140352
sS'GLN'
p3
F0
sS'GLY'
p4
F0.077850877192982462
sS'GLU'
p5
F0.00054824561403508769
sS'CYS'
p6
F0.00054824561403508769
sS'ASP'
p7
F0.052631578947368418
sS'SER'
p8
F0.029057017543859649
sS'LYS'
p9
F0.0016447368421052631
sS'PRO'
p10
F0.026315789473684209
sS'HID'
p11
F0
sS'HIE'
p12
F0
sS'ASN'
p13
F0.026315789473684209
sS'HIP'
p14
F0
sS'VAL'
p15
F0.070723684210526314
sS'THR'
p16
F0.054276315789473686
sS'TRP'
p17
F0
sS'PHE'
p18
F0.0016447368421052631
sS'ALA'
p19
F0.12993421052631579
sS'MET'
p20
F0.00054824561403508769
sS'LEU'
p21
F0.26754385964912281
sS'ARG'
p22
F0.025767543859649123
sS'TYR'
p23
F0.025219298245614034
s.