(dp1
S'WF'
p2
F0.0016447368421052631
sS'IVL'
p3
F0.54769736842105265
sS'ED'
p4
F0.053179824561403508
sS'K'
F0.0016447368421052631
sS'M'
F0.00054824561403508769
sS'NQ'
p5
F0.026315789473684209
sS'S'
F0.029057017543859649
sS'R'
F0.025767543859649123
sS'PG'
p6
F0.10416666666666667
sS'ACT'
p7
F0.18475877192982457
sS'Y'
F0.025219298245614034
sS'Hhj'
p8
F0
s.